; Function Attrs: mustprogress nofree norecurse nosync nounwind willreturn memory(read, inaccessiblemem: none) uwtable
define internal noundef nonnull ptr @_ZNK19OpenColorIO_v2_4dev12_GLOBAL__N_111Lut1DWriter10getTagNameEv(ptr nocapture noundef nonnull readonly align 8 dereferenceable(40) %this) unnamed_addr #14 align 2 {
entry:
  %m_lut = getelementptr inbounds i8, ptr %this, i64 24
  %0 = load ptr, ptr %m_lut, align 8
  %m_direction.i = getelementptr inbounds i8, ptr %0, i64 232
  %1 = load i32, ptr %m_direction.i, align 8
  %cmp = icmp eq i32 %1, 0
  %_ZN19OpenColorIO_v2_4devL9TAG_LUT1DE._ZN19OpenColorIO_v2_4devL12TAG_INVLUT1DE = select i1 %cmp, ptr @_ZN19OpenColorIO_v2_4devL9TAG_LUT1DE, ptr @.str.23
  ret ptr %_ZN19OpenColorIO_v2_4devL9TAG_LUT1DE._ZN19OpenColorIO_v2_4devL12TAG_INVLUT1DE
}